
a.out:     file format elf64-x86-64


Disassembly of section .init:

0000000000001000 <_init>:
    1000:	f3 0f 1e fa          	endbr64
    1004:	48 83 ec 08          	sub    $0x8,%rsp
    1008:	48 8b 05 d9 2f 00 00 	mov    0x2fd9(%rip),%rax        # 3fe8 <__gmon_start__@Base>
    100f:	48 85 c0             	test   %rax,%rax
    1012:	74 02                	je     1016 <_init+0x16>
    1014:	ff d0                	call   *%rax
    1016:	48 83 c4 08          	add    $0x8,%rsp
    101a:	c3                   	ret

Disassembly of section .plt:

0000000000001020 <.plt>:
    1020:	ff 35 62 2f 00 00    	push   0x2f62(%rip)        # 3f88 <_GLOBAL_OFFSET_TABLE_+0x8>
    1026:	ff 25 64 2f 00 00    	jmp    *0x2f64(%rip)        # 3f90 <_GLOBAL_OFFSET_TABLE_+0x10>
    102c:	0f 1f 40 00          	nopl   0x0(%rax)
    1030:	f3 0f 1e fa          	endbr64
    1034:	68 00 00 00 00       	push   $0x0
    1039:	e9 e2 ff ff ff       	jmp    1020 <_init+0x20>
    103e:	66 90                	xchg   %ax,%ax
    1040:	f3 0f 1e fa          	endbr64
    1044:	68 01 00 00 00       	push   $0x1
    1049:	e9 d2 ff ff ff       	jmp    1020 <_init+0x20>
    104e:	66 90                	xchg   %ax,%ax
    1050:	f3 0f 1e fa          	endbr64
    1054:	68 02 00 00 00       	push   $0x2
    1059:	e9 c2 ff ff ff       	jmp    1020 <_init+0x20>
    105e:	66 90                	xchg   %ax,%ax
    1060:	f3 0f 1e fa          	endbr64
    1064:	68 03 00 00 00       	push   $0x3
    1069:	e9 b2 ff ff ff       	jmp    1020 <_init+0x20>
    106e:	66 90                	xchg   %ax,%ax
    1070:	f3 0f 1e fa          	endbr64
    1074:	68 04 00 00 00       	push   $0x4
    1079:	e9 a2 ff ff ff       	jmp    1020 <_init+0x20>
    107e:	66 90                	xchg   %ax,%ax
    1080:	f3 0f 1e fa          	endbr64
    1084:	68 05 00 00 00       	push   $0x5
    1089:	e9 92 ff ff ff       	jmp    1020 <_init+0x20>
    108e:	66 90                	xchg   %ax,%ax
    1090:	f3 0f 1e fa          	endbr64
    1094:	68 06 00 00 00       	push   $0x6
    1099:	e9 82 ff ff ff       	jmp    1020 <_init+0x20>
    109e:	66 90                	xchg   %ax,%ax
    10a0:	f3 0f 1e fa          	endbr64
    10a4:	68 07 00 00 00       	push   $0x7
    10a9:	e9 72 ff ff ff       	jmp    1020 <_init+0x20>
    10ae:	66 90                	xchg   %ax,%ax

Disassembly of section .plt.got:

00000000000010b0 <__cxa_finalize@plt>:
    10b0:	f3 0f 1e fa          	endbr64
    10b4:	ff 25 3e 2f 00 00    	jmp    *0x2f3e(%rip)        # 3ff8 <__cxa_finalize@GLIBC_2.2.5>
    10ba:	66 0f 1f 44 00 00    	nopw   0x0(%rax,%rax,1)

Disassembly of section .plt.sec:

00000000000010c0 <__stack_chk_fail@plt>:
    10c0:	f3 0f 1e fa          	endbr64
    10c4:	ff 25 ce 2e 00 00    	jmp    *0x2ece(%rip)        # 3f98 <__stack_chk_fail@GLIBC_2.4>
    10ca:	66 0f 1f 44 00 00    	nopw   0x0(%rax,%rax,1)

00000000000010d0 <fprintf@plt>:
    10d0:	f3 0f 1e fa          	endbr64
    10d4:	ff 25 c6 2e 00 00    	jmp    *0x2ec6(%rip)        # 3fa0 <fprintf@GLIBC_2.2.5>
    10da:	66 0f 1f 44 00 00    	nopw   0x0(%rax,%rax,1)

00000000000010e0 <malloc@plt>:
    10e0:	f3 0f 1e fa          	endbr64
    10e4:	ff 25 be 2e 00 00    	jmp    *0x2ebe(%rip)        # 3fa8 <malloc@GLIBC_2.2.5>
    10ea:	66 0f 1f 44 00 00    	nopw   0x0(%rax,%rax,1)

00000000000010f0 <fflush@plt>:
    10f0:	f3 0f 1e fa          	endbr64
    10f4:	ff 25 b6 2e 00 00    	jmp    *0x2eb6(%rip)        # 3fb0 <fflush@GLIBC_2.2.5>
    10fa:	66 0f 1f 44 00 00    	nopw   0x0(%rax,%rax,1)

0000000000001100 <__isoc99_scanf@plt>:
    1100:	f3 0f 1e fa          	endbr64
    1104:	ff 25 ae 2e 00 00    	jmp    *0x2eae(%rip)        # 3fb8 <__isoc99_scanf@GLIBC_2.7>
    110a:	66 0f 1f 44 00 00    	nopw   0x0(%rax,%rax,1)

0000000000001110 <sprintf@plt>:
    1110:	f3 0f 1e fa          	endbr64
    1114:	ff 25 a6 2e 00 00    	jmp    *0x2ea6(%rip)        # 3fc0 <sprintf@GLIBC_2.2.5>
    111a:	66 0f 1f 44 00 00    	nopw   0x0(%rax,%rax,1)

0000000000001120 <exit@plt>:
    1120:	f3 0f 1e fa          	endbr64
    1124:	ff 25 9e 2e 00 00    	jmp    *0x2e9e(%rip)        # 3fc8 <exit@GLIBC_2.2.5>
    112a:	66 0f 1f 44 00 00    	nopw   0x0(%rax,%rax,1)

0000000000001130 <fwrite@plt>:
    1130:	f3 0f 1e fa          	endbr64
    1134:	ff 25 96 2e 00 00    	jmp    *0x2e96(%rip)        # 3fd0 <fwrite@GLIBC_2.2.5>
    113a:	66 0f 1f 44 00 00    	nopw   0x0(%rax,%rax,1)

Disassembly of section .text:

0000000000001140 <_start>:
    1140:	f3 0f 1e fa          	endbr64
    1144:	31 ed                	xor    %ebp,%ebp
    1146:	49 89 d1             	mov    %rdx,%r9
    1149:	5e                   	pop    %rsi
    114a:	48 89 e2             	mov    %rsp,%rdx
    114d:	48 83 e4 f0          	and    $0xfffffffffffffff0,%rsp
    1151:	50                   	push   %rax
    1152:	54                   	push   %rsp
    1153:	45 31 c0             	xor    %r8d,%r8d
    1156:	31 c9                	xor    %ecx,%ecx
    1158:	48 8d 3d 47 05 00 00 	lea    0x547(%rip),%rdi        # 16a6 <main>
    115f:	ff 15 73 2e 00 00    	call   *0x2e73(%rip)        # 3fd8 <__libc_start_main@GLIBC_2.34>
    1165:	f4                   	hlt
    1166:	66 2e 0f 1f 84 00 00 	cs nopw 0x0(%rax,%rax,1)
    116d:	00 00 00 

0000000000001170 <deregister_tm_clones>:
    1170:	48 8d 3d 99 2e 00 00 	lea    0x2e99(%rip),%rdi        # 4010 <__TMC_END__>
    1177:	48 8d 05 92 2e 00 00 	lea    0x2e92(%rip),%rax        # 4010 <__TMC_END__>
    117e:	48 39 f8             	cmp    %rdi,%rax
    1181:	74 15                	je     1198 <deregister_tm_clones+0x28>
    1183:	48 8b 05 56 2e 00 00 	mov    0x2e56(%rip),%rax        # 3fe0 <_ITM_deregisterTMCloneTable@Base>
    118a:	48 85 c0             	test   %rax,%rax
    118d:	74 09                	je     1198 <deregister_tm_clones+0x28>
    118f:	ff e0                	jmp    *%rax
    1191:	0f 1f 80 00 00 00 00 	nopl   0x0(%rax)
    1198:	c3                   	ret
    1199:	0f 1f 80 00 00 00 00 	nopl   0x0(%rax)

00000000000011a0 <register_tm_clones>:
    11a0:	48 8d 3d 69 2e 00 00 	lea    0x2e69(%rip),%rdi        # 4010 <__TMC_END__>
    11a7:	48 8d 35 62 2e 00 00 	lea    0x2e62(%rip),%rsi        # 4010 <__TMC_END__>
    11ae:	48 29 fe             	sub    %rdi,%rsi
    11b1:	48 89 f0             	mov    %rsi,%rax
    11b4:	48 c1 ee 3f          	shr    $0x3f,%rsi
    11b8:	48 c1 f8 03          	sar    $0x3,%rax
    11bc:	48 01 c6             	add    %rax,%rsi
    11bf:	48 d1 fe             	sar    $1,%rsi
    11c2:	74 14                	je     11d8 <register_tm_clones+0x38>
    11c4:	48 8b 05 25 2e 00 00 	mov    0x2e25(%rip),%rax        # 3ff0 <_ITM_registerTMCloneTable@Base>
    11cb:	48 85 c0             	test   %rax,%rax
    11ce:	74 08                	je     11d8 <register_tm_clones+0x38>
    11d0:	ff e0                	jmp    *%rax
    11d2:	66 0f 1f 44 00 00    	nopw   0x0(%rax,%rax,1)
    11d8:	c3                   	ret
    11d9:	0f 1f 80 00 00 00 00 	nopl   0x0(%rax)

00000000000011e0 <__do_global_dtors_aux>:
    11e0:	f3 0f 1e fa          	endbr64
    11e4:	80 3d 5d 2e 00 00 00 	cmpb   $0x0,0x2e5d(%rip)        # 4048 <completed.0>
    11eb:	75 2b                	jne    1218 <__do_global_dtors_aux+0x38>
    11ed:	55                   	push   %rbp
    11ee:	48 83 3d 02 2e 00 00 	cmpq   $0x0,0x2e02(%rip)        # 3ff8 <__cxa_finalize@GLIBC_2.2.5>
    11f5:	00 
    11f6:	48 89 e5             	mov    %rsp,%rbp
    11f9:	74 0c                	je     1207 <__do_global_dtors_aux+0x27>
    11fb:	48 8b 3d 06 2e 00 00 	mov    0x2e06(%rip),%rdi        # 4008 <__dso_handle>
    1202:	e8 a9 fe ff ff       	call   10b0 <__cxa_finalize@plt>
    1207:	e8 64 ff ff ff       	call   1170 <deregister_tm_clones>
    120c:	c6 05 35 2e 00 00 01 	movb   $0x1,0x2e35(%rip)        # 4048 <completed.0>
    1213:	5d                   	pop    %rbp
    1214:	c3                   	ret
    1215:	0f 1f 00             	nopl   (%rax)
    1218:	c3                   	ret
    1219:	0f 1f 80 00 00 00 00 	nopl   0x0(%rax)

0000000000001220 <frame_dummy>:
    1220:	f3 0f 1e fa          	endbr64
    1224:	e9 77 ff ff ff       	jmp    11a0 <register_tm_clones>

0000000000001229 <encode>:
    1229:	f3 0f 1e fa          	endbr64
    122d:	55                   	push   %rbp
    122e:	48 89 e5             	mov    %rsp,%rbp
    1231:	48 83 ec 40          	sub    $0x40,%rsp
    1235:	89 f8                	mov    %edi,%eax
    1237:	66 89 45 dc          	mov    %ax,-0x24(%rbp)
    123b:	0f b7 45 dc          	movzwl -0x24(%rbp),%eax
    123f:	66 c1 e8 07          	shr    $0x7,%ax
    1243:	66 85 c0             	test   %ax,%ax
    1246:	75 24                	jne    126c <encode+0x43>
    1248:	c7 45 f0 00 00 00 00 	movl   $0x0,-0x10(%rbp)
    124f:	0f b7 45 dc          	movzwl -0x24(%rbp),%eax
    1253:	83 e0 7f             	and    $0x7f,%eax
    1256:	89 45 e8             	mov    %eax,-0x18(%rbp)
    1259:	48 8b 45 e8          	mov    -0x18(%rbp),%rax
    125d:	48 89 45 f4          	mov    %rax,-0xc(%rbp)
    1261:	8b 45 f0             	mov    -0x10(%rbp),%eax
    1264:	89 45 fc             	mov    %eax,-0x4(%rbp)
    1267:	e9 96 01 00 00       	jmp    1402 <encode+0x1d9>
    126c:	0f b7 45 dc          	movzwl -0x24(%rbp),%eax
    1270:	66 c1 e8 04          	shr    $0x4,%ax
    1274:	66 83 f8 08          	cmp    $0x8,%ax
    1278:	75 31                	jne    12ab <encode+0x82>
    127a:	c7 45 f0 08 00 00 00 	movl   $0x8,-0x10(%rbp)
    1281:	0f b7 45 dc          	movzwl -0x24(%rbp),%eax
    1285:	c1 f8 02             	sar    $0x2,%eax
    1288:	83 e0 03             	and    $0x3,%eax
    128b:	89 45 e8             	mov    %eax,-0x18(%rbp)
    128e:	0f b7 45 dc          	movzwl -0x24(%rbp),%eax
    1292:	83 e0 03             	and    $0x3,%eax
    1295:	89 45 ec             	mov    %eax,-0x14(%rbp)
    1298:	48 8b 45 e8          	mov    -0x18(%rbp),%rax
    129c:	48 89 45 f4          	mov    %rax,-0xc(%rbp)
    12a0:	8b 45 f0             	mov    -0x10(%rbp),%eax
    12a3:	89 45 fc             	mov    %eax,-0x4(%rbp)
    12a6:	e9 57 01 00 00       	jmp    1402 <encode+0x1d9>
    12ab:	0f b7 45 dc          	movzwl -0x24(%rbp),%eax
    12af:	66 c1 e8 04          	shr    $0x4,%ax
    12b3:	66 83 f8 09          	cmp    $0x9,%ax
    12b7:	75 31                	jne    12ea <encode+0xc1>
    12b9:	c7 45 f0 09 00 00 00 	movl   $0x9,-0x10(%rbp)
    12c0:	0f b7 45 dc          	movzwl -0x24(%rbp),%eax
    12c4:	c1 f8 02             	sar    $0x2,%eax
    12c7:	83 e0 03             	and    $0x3,%eax
    12ca:	89 45 e8             	mov    %eax,-0x18(%rbp)
    12cd:	0f b7 45 dc          	movzwl -0x24(%rbp),%eax
    12d1:	83 e0 03             	and    $0x3,%eax
    12d4:	89 45 ec             	mov    %eax,-0x14(%rbp)
    12d7:	48 8b 45 e8          	mov    -0x18(%rbp),%rax
    12db:	48 89 45 f4          	mov    %rax,-0xc(%rbp)
    12df:	8b 45 f0             	mov    -0x10(%rbp),%eax
    12e2:	89 45 fc             	mov    %eax,-0x4(%rbp)
    12e5:	e9 18 01 00 00       	jmp    1402 <encode+0x1d9>
    12ea:	0f b7 45 dc          	movzwl -0x24(%rbp),%eax
    12ee:	66 c1 e8 04          	shr    $0x4,%ax
    12f2:	66 83 f8 0a          	cmp    $0xa,%ax
    12f6:	75 31                	jne    1329 <encode+0x100>
    12f8:	c7 45 f0 0a 00 00 00 	movl   $0xa,-0x10(%rbp)
    12ff:	0f b7 45 dc          	movzwl -0x24(%rbp),%eax
    1303:	c1 f8 02             	sar    $0x2,%eax
    1306:	83 e0 03             	and    $0x3,%eax
    1309:	89 45 e8             	mov    %eax,-0x18(%rbp)
    130c:	0f b7 45 dc          	movzwl -0x24(%rbp),%eax
    1310:	83 e0 03             	and    $0x3,%eax
    1313:	89 45 ec             	mov    %eax,-0x14(%rbp)
    1316:	48 8b 45 e8          	mov    -0x18(%rbp),%rax
    131a:	48 89 45 f4          	mov    %rax,-0xc(%rbp)
    131e:	8b 45 f0             	mov    -0x10(%rbp),%eax
    1321:	89 45 fc             	mov    %eax,-0x4(%rbp)
    1324:	e9 d9 00 00 00       	jmp    1402 <encode+0x1d9>
    1329:	0f b7 45 dc          	movzwl -0x24(%rbp),%eax
    132d:	66 c1 e8 04          	shr    $0x4,%ax
    1331:	66 83 f8 0b          	cmp    $0xb,%ax
    1335:	75 31                	jne    1368 <encode+0x13f>
    1337:	c7 45 f0 0b 00 00 00 	movl   $0xb,-0x10(%rbp)
    133e:	0f b7 45 dc          	movzwl -0x24(%rbp),%eax
    1342:	c1 f8 02             	sar    $0x2,%eax
    1345:	83 e0 03             	and    $0x3,%eax
    1348:	89 45 e8             	mov    %eax,-0x18(%rbp)
    134b:	0f b7 45 dc          	movzwl -0x24(%rbp),%eax
    134f:	83 e0 03             	and    $0x3,%eax
    1352:	89 45 ec             	mov    %eax,-0x14(%rbp)
    1355:	48 8b 45 e8          	mov    -0x18(%rbp),%rax
    1359:	48 89 45 f4          	mov    %rax,-0xc(%rbp)
    135d:	8b 45 f0             	mov    -0x10(%rbp),%eax
    1360:	89 45 fc             	mov    %eax,-0x4(%rbp)
    1363:	e9 9a 00 00 00       	jmp    1402 <encode+0x1d9>
    1368:	0f b7 45 dc          	movzwl -0x24(%rbp),%eax
    136c:	66 c1 e8 02          	shr    $0x2,%ax
    1370:	66 83 f8 30          	cmp    $0x30,%ax
    1374:	75 21                	jne    1397 <encode+0x16e>
    1376:	c7 45 f0 30 00 00 00 	movl   $0x30,-0x10(%rbp)
    137d:	0f b7 45 dc          	movzwl -0x24(%rbp),%eax
    1381:	83 e0 03             	and    $0x3,%eax
    1384:	89 45 e8             	mov    %eax,-0x18(%rbp)
    1387:	48 8b 45 e8          	mov    -0x18(%rbp),%rax
    138b:	48 89 45 f4          	mov    %rax,-0xc(%rbp)
    138f:	8b 45 f0             	mov    -0x10(%rbp),%eax
    1392:	89 45 fc             	mov    %eax,-0x4(%rbp)
    1395:	eb 6b                	jmp    1402 <encode+0x1d9>
    1397:	0f b7 45 dc          	movzwl -0x24(%rbp),%eax
    139b:	66 c1 e8 02          	shr    $0x2,%ax
    139f:	66 83 f8 31          	cmp    $0x31,%ax
    13a3:	75 21                	jne    13c6 <encode+0x19d>
    13a5:	c7 45 f0 31 00 00 00 	movl   $0x31,-0x10(%rbp)
    13ac:	0f b7 45 dc          	movzwl -0x24(%rbp),%eax
    13b0:	83 e0 03             	and    $0x3,%eax
    13b3:	89 45 e8             	mov    %eax,-0x18(%rbp)
    13b6:	48 8b 45 e8          	mov    -0x18(%rbp),%rax
    13ba:	48 89 45 f4          	mov    %rax,-0xc(%rbp)
    13be:	8b 45 f0             	mov    -0x10(%rbp),%eax
    13c1:	89 45 fc             	mov    %eax,-0x4(%rbp)
    13c4:	eb 3c                	jmp    1402 <encode+0x1d9>
    13c6:	48 8b 05 73 2c 00 00 	mov    0x2c73(%rip),%rax        # 4040 <stderr@GLIBC_2.2.5>
    13cd:	48 89 c1             	mov    %rax,%rcx
    13d0:	ba 06 00 00 00       	mov    $0x6,%edx
    13d5:	be 01 00 00 00       	mov    $0x1,%esi
    13da:	48 8d 05 23 0c 00 00 	lea    0xc23(%rip),%rax        # 2004 <_IO_stdin_used+0x4>
    13e1:	48 89 c7             	mov    %rax,%rdi
    13e4:	e8 47 fd ff ff       	call   1130 <fwrite@plt>
    13e9:	48 8b 05 50 2c 00 00 	mov    0x2c50(%rip),%rax        # 4040 <stderr@GLIBC_2.2.5>
    13f0:	48 89 c7             	mov    %rax,%rdi
    13f3:	e8 f8 fc ff ff       	call   10f0 <fflush@plt>
    13f8:	bf 00 00 00 00       	mov    $0x0,%edi
    13fd:	e8 1e fd ff ff       	call   1120 <exit@plt>
    1402:	48 8b 45 f4          	mov    -0xc(%rbp),%rax
    1406:	8b 4d fc             	mov    -0x4(%rbp),%ecx
    1409:	48 89 ca             	mov    %rcx,%rdx
    140c:	c9                   	leave
    140d:	c3                   	ret

000000000000140e <encode_simvol>:
    140e:	f3 0f 1e fa          	endbr64
    1412:	55                   	push   %rbp
    1413:	48 89 e5             	mov    %rsp,%rbp
    1416:	48 83 ec 10          	sub    $0x10,%rsp
    141a:	89 7d fc             	mov    %edi,-0x4(%rbp)
    141d:	83 7d fc 00          	cmpl   $0x0,-0x4(%rbp)
    1421:	75 07                	jne    142a <encode_simvol+0x1c>
    1423:	b8 41 00 00 00       	mov    $0x41,%eax
    1428:	eb 63                	jmp    148d <encode_simvol+0x7f>
    142a:	83 7d fc 01          	cmpl   $0x1,-0x4(%rbp)
    142e:	75 07                	jne    1437 <encode_simvol+0x29>
    1430:	b8 42 00 00 00       	mov    $0x42,%eax
    1435:	eb 56                	jmp    148d <encode_simvol+0x7f>
    1437:	83 7d fc 02          	cmpl   $0x2,-0x4(%rbp)
    143b:	75 07                	jne    1444 <encode_simvol+0x36>
    143d:	b8 43 00 00 00       	mov    $0x43,%eax
    1442:	eb 49                	jmp    148d <encode_simvol+0x7f>
    1444:	83 7d fc 03          	cmpl   $0x3,-0x4(%rbp)
    1448:	75 07                	jne    1451 <encode_simvol+0x43>
    144a:	b8 44 00 00 00       	mov    $0x44,%eax
    144f:	eb 3c                	jmp    148d <encode_simvol+0x7f>
    1451:	48 8b 05 e8 2b 00 00 	mov    0x2be8(%rip),%rax        # 4040 <stderr@GLIBC_2.2.5>
    1458:	48 89 c1             	mov    %rax,%rcx
    145b:	ba 06 00 00 00       	mov    $0x6,%edx
    1460:	be 01 00 00 00       	mov    $0x1,%esi
    1465:	48 8d 05 98 0b 00 00 	lea    0xb98(%rip),%rax        # 2004 <_IO_stdin_used+0x4>
    146c:	48 89 c7             	mov    %rax,%rdi
    146f:	e8 bc fc ff ff       	call   1130 <fwrite@plt>
    1474:	48 8b 05 c5 2b 00 00 	mov    0x2bc5(%rip),%rax        # 4040 <stderr@GLIBC_2.2.5>
    147b:	48 89 c7             	mov    %rax,%rdi
    147e:	e8 6d fc ff ff       	call   10f0 <fflush@plt>
    1483:	bf 00 00 00 00       	mov    $0x0,%edi
    1488:	e8 93 fc ff ff       	call   1120 <exit@plt>
    148d:	c9                   	leave
    148e:	c3                   	ret

000000000000148f <pechat>:
    148f:	f3 0f 1e fa          	endbr64
    1493:	55                   	push   %rbp
    1494:	48 89 e5             	mov    %rsp,%rbp
    1497:	53                   	push   %rbx
    1498:	48 83 ec 28          	sub    $0x28,%rsp
    149c:	48 89 fa             	mov    %rdi,%rdx
    149f:	89 f0                	mov    %esi,%eax
    14a1:	48 89 55 d0          	mov    %rdx,-0x30(%rbp)
    14a5:	89 45 d8             	mov    %eax,-0x28(%rbp)
    14a8:	bf 20 00 00 00       	mov    $0x20,%edi
    14ad:	e8 2e fc ff ff       	call   10e0 <malloc@plt>
    14b2:	48 89 45 e8          	mov    %rax,-0x18(%rbp)
    14b6:	8b 45 d8             	mov    -0x28(%rbp),%eax
    14b9:	85 c0                	test   %eax,%eax
    14bb:	75 27                	jne    14e4 <pechat+0x55>
    14bd:	8b 55 d0             	mov    -0x30(%rbp),%edx
    14c0:	48 8b 45 e8          	mov    -0x18(%rbp),%rax
    14c4:	48 8d 0d 40 0b 00 00 	lea    0xb40(%rip),%rcx        # 200b <_IO_stdin_used+0xb>
    14cb:	48 89 ce             	mov    %rcx,%rsi
    14ce:	48 89 c7             	mov    %rax,%rdi
    14d1:	b8 00 00 00 00       	mov    $0x0,%eax
    14d6:	e8 35 fc ff ff       	call   1110 <sprintf@plt>
    14db:	48 8b 45 e8          	mov    -0x18(%rbp),%rax
    14df:	e9 bc 01 00 00       	jmp    16a0 <pechat+0x211>
    14e4:	8b 45 d8             	mov    -0x28(%rbp),%eax
    14e7:	83 f8 08             	cmp    $0x8,%eax
    14ea:	75 3d                	jne    1529 <pechat+0x9a>
    14ec:	8b 45 d4             	mov    -0x2c(%rbp),%eax
    14ef:	89 c7                	mov    %eax,%edi
    14f1:	e8 18 ff ff ff       	call   140e <encode_simvol>
    14f6:	0f be d8             	movsbl %al,%ebx
    14f9:	8b 45 d0             	mov    -0x30(%rbp),%eax
    14fc:	89 c7                	mov    %eax,%edi
    14fe:	e8 0b ff ff ff       	call   140e <encode_simvol>
    1503:	0f be d0             	movsbl %al,%edx
    1506:	48 8b 45 e8          	mov    -0x18(%rbp),%rax
    150a:	89 d9                	mov    %ebx,%ecx
    150c:	48 8d 35 00 0b 00 00 	lea    0xb00(%rip),%rsi        # 2013 <_IO_stdin_used+0x13>
    1513:	48 89 c7             	mov    %rax,%rdi
    1516:	b8 00 00 00 00       	mov    $0x0,%eax
    151b:	e8 f0 fb ff ff       	call   1110 <sprintf@plt>
    1520:	48 8b 45 e8          	mov    -0x18(%rbp),%rax
    1524:	e9 77 01 00 00       	jmp    16a0 <pechat+0x211>
    1529:	8b 45 d8             	mov    -0x28(%rbp),%eax
    152c:	83 f8 09             	cmp    $0x9,%eax
    152f:	75 3d                	jne    156e <pechat+0xdf>
    1531:	8b 45 d4             	mov    -0x2c(%rbp),%eax
    1534:	89 c7                	mov    %eax,%edi
    1536:	e8 d3 fe ff ff       	call   140e <encode_simvol>
    153b:	0f be d8             	movsbl %al,%ebx
    153e:	8b 45 d0             	mov    -0x30(%rbp),%eax
    1541:	89 c7                	mov    %eax,%edi
    1543:	e8 c6 fe ff ff       	call   140e <encode_simvol>
    1548:	0f be d0             	movsbl %al,%edx
    154b:	48 8b 45 e8          	mov    -0x18(%rbp),%rax
    154f:	89 d9                	mov    %ebx,%ecx
    1551:	48 8d 35 c6 0a 00 00 	lea    0xac6(%rip),%rsi        # 201e <_IO_stdin_used+0x1e>
    1558:	48 89 c7             	mov    %rax,%rdi
    155b:	b8 00 00 00 00       	mov    $0x0,%eax
    1560:	e8 ab fb ff ff       	call   1110 <sprintf@plt>
    1565:	48 8b 45 e8          	mov    -0x18(%rbp),%rax
    1569:	e9 32 01 00 00       	jmp    16a0 <pechat+0x211>
    156e:	8b 45 d8             	mov    -0x28(%rbp),%eax
    1571:	83 f8 0b             	cmp    $0xb,%eax
    1574:	75 3d                	jne    15b3 <pechat+0x124>
    1576:	8b 45 d4             	mov    -0x2c(%rbp),%eax
    1579:	89 c7                	mov    %eax,%edi
    157b:	e8 8e fe ff ff       	call   140e <encode_simvol>
    1580:	0f be d8             	movsbl %al,%ebx
    1583:	8b 45 d0             	mov    -0x30(%rbp),%eax
    1586:	89 c7                	mov    %eax,%edi
    1588:	e8 81 fe ff ff       	call   140e <encode_simvol>
    158d:	0f be d0             	movsbl %al,%edx
    1590:	48 8b 45 e8          	mov    -0x18(%rbp),%rax
    1594:	89 d9                	mov    %ebx,%ecx
    1596:	48 8d 35 8c 0a 00 00 	lea    0xa8c(%rip),%rsi        # 2029 <_IO_stdin_used+0x29>
    159d:	48 89 c7             	mov    %rax,%rdi
    15a0:	b8 00 00 00 00       	mov    $0x0,%eax
    15a5:	e8 66 fb ff ff       	call   1110 <sprintf@plt>
    15aa:	48 8b 45 e8          	mov    -0x18(%rbp),%rax
    15ae:	e9 ed 00 00 00       	jmp    16a0 <pechat+0x211>
    15b3:	8b 45 d8             	mov    -0x28(%rbp),%eax
    15b6:	83 f8 0a             	cmp    $0xa,%eax
    15b9:	75 3d                	jne    15f8 <pechat+0x169>
    15bb:	8b 45 d4             	mov    -0x2c(%rbp),%eax
    15be:	89 c7                	mov    %eax,%edi
    15c0:	e8 49 fe ff ff       	call   140e <encode_simvol>
    15c5:	0f be d8             	movsbl %al,%ebx
    15c8:	8b 45 d0             	mov    -0x30(%rbp),%eax
    15cb:	89 c7                	mov    %eax,%edi
    15cd:	e8 3c fe ff ff       	call   140e <encode_simvol>
    15d2:	0f be d0             	movsbl %al,%edx
    15d5:	48 8b 45 e8          	mov    -0x18(%rbp),%rax
    15d9:	89 d9                	mov    %ebx,%ecx
    15db:	48 8d 35 52 0a 00 00 	lea    0xa52(%rip),%rsi        # 2034 <_IO_stdin_used+0x34>
    15e2:	48 89 c7             	mov    %rax,%rdi
    15e5:	b8 00 00 00 00       	mov    $0x0,%eax
    15ea:	e8 21 fb ff ff       	call   1110 <sprintf@plt>
    15ef:	48 8b 45 e8          	mov    -0x18(%rbp),%rax
    15f3:	e9 a8 00 00 00       	jmp    16a0 <pechat+0x211>
    15f8:	8b 45 d8             	mov    -0x28(%rbp),%eax
    15fb:	83 f8 30             	cmp    $0x30,%eax
    15fe:	75 2e                	jne    162e <pechat+0x19f>
    1600:	8b 45 d0             	mov    -0x30(%rbp),%eax
    1603:	89 c7                	mov    %eax,%edi
    1605:	e8 04 fe ff ff       	call   140e <encode_simvol>
    160a:	0f be d0             	movsbl %al,%edx
    160d:	48 8b 45 e8          	mov    -0x18(%rbp),%rax
    1611:	48 8d 0d 27 0a 00 00 	lea    0xa27(%rip),%rcx        # 203f <_IO_stdin_used+0x3f>
    1618:	48 89 ce             	mov    %rcx,%rsi
    161b:	48 89 c7             	mov    %rax,%rdi
    161e:	b8 00 00 00 00       	mov    $0x0,%eax
    1623:	e8 e8 fa ff ff       	call   1110 <sprintf@plt>
    1628:	48 8b 45 e8          	mov    -0x18(%rbp),%rax
    162c:	eb 72                	jmp    16a0 <pechat+0x211>
    162e:	8b 45 d8             	mov    -0x28(%rbp),%eax
    1631:	83 f8 31             	cmp    $0x31,%eax
    1634:	75 2e                	jne    1664 <pechat+0x1d5>
    1636:	8b 45 d0             	mov    -0x30(%rbp),%eax
    1639:	89 c7                	mov    %eax,%edi
    163b:	e8 ce fd ff ff       	call   140e <encode_simvol>
    1640:	0f be d0             	movsbl %al,%edx
    1643:	48 8b 45 e8          	mov    -0x18(%rbp),%rax
    1647:	48 8d 0d f7 09 00 00 	lea    0x9f7(%rip),%rcx        # 2045 <_IO_stdin_used+0x45>
    164e:	48 89 ce             	mov    %rcx,%rsi
    1651:	48 89 c7             	mov    %rax,%rdi
    1654:	b8 00 00 00 00       	mov    $0x0,%eax
    1659:	e8 b2 fa ff ff       	call   1110 <sprintf@plt>
    165e:	48 8b 45 e8          	mov    -0x18(%rbp),%rax
    1662:	eb 3c                	jmp    16a0 <pechat+0x211>
    1664:	48 8b 05 d5 29 00 00 	mov    0x29d5(%rip),%rax        # 4040 <stderr@GLIBC_2.2.5>
    166b:	48 89 c1             	mov    %rax,%rcx
    166e:	ba 06 00 00 00       	mov    $0x6,%edx
    1673:	be 01 00 00 00       	mov    $0x1,%esi
    1678:	48 8d 05 85 09 00 00 	lea    0x985(%rip),%rax        # 2004 <_IO_stdin_used+0x4>
    167f:	48 89 c7             	mov    %rax,%rdi
    1682:	e8 a9 fa ff ff       	call   1130 <fwrite@plt>
    1687:	48 8b 05 b2 29 00 00 	mov    0x29b2(%rip),%rax        # 4040 <stderr@GLIBC_2.2.5>
    168e:	48 89 c7             	mov    %rax,%rdi
    1691:	e8 5a fa ff ff       	call   10f0 <fflush@plt>
    1696:	bf 00 00 00 00       	mov    $0x0,%edi
    169b:	e8 80 fa ff ff       	call   1120 <exit@plt>
    16a0:	48 8b 5d f8          	mov    -0x8(%rbp),%rbx
    16a4:	c9                   	leave
    16a5:	c3                   	ret

00000000000016a6 <main>:
    16a6:	f3 0f 1e fa          	endbr64
    16aa:	55                   	push   %rbp
    16ab:	48 89 e5             	mov    %rsp,%rbp
    16ae:	48 83 ec 20          	sub    $0x20,%rsp
    16b2:	64 48 8b 04 25 28 00 	mov    %fs:0x28,%rax
    16b9:	00 00 
    16bb:	48 89 45 f8          	mov    %rax,-0x8(%rbp)
    16bf:	31 c0                	xor    %eax,%eax
    16c1:	eb 5e                	jmp    1721 <main+0x7b>
    16c3:	0f b7 45 ea          	movzwl -0x16(%rbp),%eax
    16c7:	0f b7 c0             	movzwl %ax,%eax
    16ca:	89 c7                	mov    %eax,%edi
    16cc:	e8 58 fb ff ff       	call   1229 <encode>
    16d1:	48 89 45 ec          	mov    %rax,-0x14(%rbp)
    16d5:	8b 45 f4             	mov    -0xc(%rbp),%eax
    16d8:	83 e0 00             	and    $0x0,%eax
    16db:	09 d0                	or     %edx,%eax
    16dd:	89 45 f4             	mov    %eax,-0xc(%rbp)
    16e0:	48 8b 55 ec          	mov    -0x14(%rbp),%rdx
    16e4:	8b 45 f4             	mov    -0xc(%rbp),%eax
    16e7:	48 89 d7             	mov    %rdx,%rdi
    16ea:	89 c6                	mov    %eax,%esi
    16ec:	e8 9e fd ff ff       	call   148f <pechat>
    16f1:	48 89 c2             	mov    %rax,%rdx
    16f4:	48 8b 05 25 29 00 00 	mov    0x2925(%rip),%rax        # 4020 <stdout@GLIBC_2.2.5>
    16fb:	48 8d 0d 4a 09 00 00 	lea    0x94a(%rip),%rcx        # 204c <_IO_stdin_used+0x4c>
    1702:	48 89 ce             	mov    %rcx,%rsi
    1705:	48 89 c7             	mov    %rax,%rdi
    1708:	b8 00 00 00 00       	mov    $0x0,%eax
    170d:	e8 be f9 ff ff       	call   10d0 <fprintf@plt>
    1712:	48 8b 05 07 29 00 00 	mov    0x2907(%rip),%rax        # 4020 <stdout@GLIBC_2.2.5>
    1719:	48 89 c7             	mov    %rax,%rdi
    171c:	e8 cf f9 ff ff       	call   10f0 <fflush@plt>
    1721:	48 8d 45 ea          	lea    -0x16(%rbp),%rax
    1725:	48 89 c6             	mov    %rax,%rsi
    1728:	48 8d 05 21 09 00 00 	lea    0x921(%rip),%rax        # 2050 <_IO_stdin_used+0x50>
    172f:	48 89 c7             	mov    %rax,%rdi
    1732:	b8 00 00 00 00       	mov    $0x0,%eax
    1737:	e8 c4 f9 ff ff       	call   1100 <__isoc99_scanf@plt>
    173c:	83 f8 01             	cmp    $0x1,%eax
    173f:	74 82                	je     16c3 <main+0x1d>
    1741:	b8 00 00 00 00       	mov    $0x0,%eax
    1746:	48 8b 55 f8          	mov    -0x8(%rbp),%rdx
    174a:	64 48 2b 14 25 28 00 	sub    %fs:0x28,%rdx
    1751:	00 00 
    1753:	74 05                	je     175a <main+0xb4>
    1755:	e8 66 f9 ff ff       	call   10c0 <__stack_chk_fail@plt>
    175a:	c9                   	leave
    175b:	c3                   	ret

Disassembly of section .fini:

000000000000175c <_fini>:
    175c:	f3 0f 1e fa          	endbr64
    1760:	48 83 ec 08          	sub    $0x8,%rsp
    1764:	48 83 c4 08          	add    $0x8,%rsp
    1768:	c3                   	ret
